target datalayout = "e-m:e-p270:32:32-p271:32:32-p272:64:64-i64:64-i128:128-f80:128-n8:16:32:64-S128"
target triple = "x86_64-pc-linux-gnu"

%struct.ImVec2 = type { float, float }
%struct.ImVec4 = type { float, float, float, float }
%struct.ImVector = type { i32, i32, ptr }
%struct.ImDrawCmd = type { %struct.ImVec4, ptr, i32, i32, i32, ptr, ptr }
%struct.ImDrawList = type { %struct.ImVector.0, %struct.ImVector.1, %struct.ImVector.2, i32, i32, ptr, ptr, ptr, %struct.ImVector, %struct.ImDrawCmdHeader, %struct.ImDrawListSplitter, %struct.ImVector.4, %struct.ImVector.5, float, ptr }
%struct.ImVector.0 = type { i32, i32, ptr }
%struct.ImVector.1 = type { i32, i32, ptr }
%struct.ImVector.2 = type { i32, i32, ptr }
%struct.ImDrawCmdHeader = type <{ %struct.ImVec4, ptr, i32, [4 x i8] }>
%struct.ImDrawListSplitter = type { i32, i32, %struct.ImVector.3 }
%struct.ImVector.3 = type { i32, i32, ptr }
%struct.ImVector.4 = type { i32, i32, ptr }
%struct.ImVector.5 = type { i32, i32, ptr }
%struct.ImDrawData = type { i8, i32, i32, i32, %struct.ImVector.8, %struct.ImVec2, %struct.ImVec2, %struct.ImVec2, ptr }
%struct.ImVector.8 = type { i32, i32, ptr }

; Function Attrs: inlinehint mustprogress nounwind uwtable
define linkonce_odr dso_local void @_ZN8ImVectorI9ImDrawCmdE8pop_backEv(ptr noundef nonnull align 8 dereferenceable(16) %0) #7 comdat align 2 {
  %2 = alloca ptr, align 8
  store ptr %0, ptr %2, align 8, !tbaa !89
  %3 = load ptr, ptr %2, align 8
  %4 = getelementptr inbounds nuw %struct.ImVector.0, ptr %3, i32 0, i32 0
  %5 = load i32, ptr %4, align 8, !tbaa !92
  %6 = add nsw i32 %5, -1
  store i32 %6, ptr %4, align 8, !tbaa !92
  ret void
}

; Function Attrs: mustprogress uwtable
define dso_local void @_ZN10ImDrawList17_PopUnusedDrawCmdEv(ptr noundef nonnull align 8 dereferenceable(200) %0) #6 align 2 {
  %2 = alloca ptr, align 8
  %3 = alloca ptr, align 8
  %4 = alloca i32, align 4
  store ptr %0, ptr %2, align 8, !tbaa !43
  %5 = load ptr, ptr %2, align 8
  br label %6

6:                                                ; preds = %35, %1
  %7 = getelementptr inbounds nuw %struct.ImDrawList, ptr %5, i32 0, i32 0
  %8 = getelementptr inbounds nuw %struct.ImVector.0, ptr %7, i32 0, i32 0
  %9 = load i32, ptr %8, align 8, !tbaa !70
  %10 = icmp sgt i32 %9, 0
  br i1 %10, label %11, label %36

11:                                               ; preds = %6
  call void @llvm.lifetime.start.p0(i64 8, ptr %3) #17
  %12 = getelementptr inbounds nuw %struct.ImDrawList, ptr %5, i32 0, i32 0
  %13 = getelementptr inbounds nuw %struct.ImVector.0, ptr %12, i32 0, i32 2
  %14 = load ptr, ptr %13, align 8, !tbaa !84
  %15 = getelementptr inbounds nuw %struct.ImDrawList, ptr %5, i32 0, i32 0
  %16 = getelementptr inbounds nuw %struct.ImVector.0, ptr %15, i32 0, i32 0
  %17 = load i32, ptr %16, align 8, !tbaa !70
  %18 = sub nsw i32 %17, 1
  %19 = sext i32 %18 to i64
  %20 = getelementptr inbounds %struct.ImDrawCmd, ptr %14, i64 %19
  store ptr %20, ptr %3, align 8, !tbaa !71
  %21 = load ptr, ptr %3, align 8, !tbaa !71
  %22 = getelementptr inbounds nuw %struct.ImDrawCmd, ptr %21, i32 0, i32 4
  %23 = load i32, ptr %22, align 8, !tbaa !74
  %24 = icmp ne i32 %23, 0
  br i1 %24, label %30, label %25

25:                                               ; preds = %11
  %26 = load ptr, ptr %3, align 8, !tbaa !71
  %27 = getelementptr inbounds nuw %struct.ImDrawCmd, ptr %26, i32 0, i32 5
  %28 = load ptr, ptr %27, align 8, !tbaa !78
  %29 = icmp ne ptr %28, null
  br i1 %29, label %30, label %31

30:                                               ; preds = %25, %11
  store i32 1, ptr %4, align 4
  br label %33

31:                                               ; preds = %25
  %32 = getelementptr inbounds nuw %struct.ImDrawList, ptr %5, i32 0, i32 0
  call void @_ZN8ImVectorI9ImDrawCmdE8pop_backEv(ptr noundef nonnull align 8 dereferenceable(16) %32)
  store i32 0, ptr %4, align 4
  br label %33

33:                                               ; preds = %31, %30
  call void @llvm.lifetime.end.p0(i64 8, ptr %3) #17
  %34 = load i32, ptr %4, align 4
  switch i32 %34, label %37 [
    i32 0, label %35
    i32 1, label %36
  ]

35:                                               ; preds = %33
  br label %6, !llvm.loop !124

36:                                               ; preds = %33, %6
  ret void

37:                                               ; preds = %33
  unreachable
}

; Function Attrs: mustprogress uwtable
define dso_local void @_ZN10ImDrawData11AddDrawListEP10ImDrawList(ptr noundef nonnull align 8 dereferenceable(64) %0, ptr noundef %1) #6 align 2 {
  %3 = alloca ptr, align 8
  %4 = alloca ptr, align 8
  store ptr %0, ptr %3, align 8, !tbaa !246
  store ptr %1, ptr %4, align 8, !tbaa !43
  %5 = load ptr, ptr %3, align 8
  %6 = load ptr, ptr %4, align 8, !tbaa !43
  call void @_ZN10ImDrawList17_PopUnusedDrawCmdEv(ptr noundef nonnull align 8 dereferenceable(200) %6)
  %7 = getelementptr inbounds nuw %struct.ImDrawData, ptr %5, i32 0, i32 4
  %8 = load ptr, ptr %4, align 8, !tbaa !43
  call void @_ZN5ImGui23AddDrawListToDrawDataExEP10ImDrawDataP8ImVectorIP10ImDrawListES4_(ptr noundef %5, ptr noundef %7, ptr noundef %8)
  ret void
}